target datalayout = "e-m:e-p270:32:32-p271:32:32-p272:64:64-i64:64-i128:128-f80:128-n8:16:32:64-S128"
target triple = "x86_64-pc-linux-gnu"

%struct.nghttp2_nv = type { ptr, ptr, i64, i64, i8 }

@.str.1 = private unnamed_addr constant [113 x i8] c"generated/home/dtcxzyw/WorkSpace/Projects/compilers/llvm-opt-benchmark/bench/nghttp2/nghttp2/lib/nghttp2_frame.c\00", align 1
@.str.10 = private unnamed_addr constant [16 x i8] c"a->namelen == 0\00", align 1
@__PRETTY_FUNCTION__.nghttp2_nv_equal = private unnamed_addr constant [61 x i8] c"int nghttp2_nv_equal(const nghttp2_nv *, const nghttp2_nv *)\00", align 1
@.str.11 = private unnamed_addr constant [16 x i8] c"b->namelen == 0\00", align 1
@.str.12 = private unnamed_addr constant [17 x i8] c"a->valuelen == 0\00", align 1
@.str.13 = private unnamed_addr constant [17 x i8] c"b->valuelen == 0\00", align 1

; Function Attrs: nounwind uwtable
define hidden i32 @nghttp2_nv_equal(ptr noundef %0, ptr noundef %1) #0 {
  %3 = alloca i32, align 4
  %4 = alloca ptr, align 8
  %5 = alloca ptr, align 8
  store ptr %0, ptr %4, align 8, !tbaa !8
  store ptr %1, ptr %5, align 8, !tbaa !8
  %6 = load ptr, ptr %4, align 8, !tbaa !8
  %7 = getelementptr inbounds nuw %struct.nghttp2_nv, ptr %6, i32 0, i32 2
  %8 = load i64, ptr %7, align 8, !tbaa !103
  %9 = load ptr, ptr %5, align 8, !tbaa !8
  %10 = getelementptr inbounds nuw %struct.nghttp2_nv, ptr %9, i32 0, i32 2
  %11 = load i64, ptr %10, align 8, !tbaa !103
  %12 = icmp ne i64 %8, %11
  br i1 %12, label %21, label %13

13:                                               ; preds = %2
  %14 = load ptr, ptr %4, align 8, !tbaa !8
  %15 = getelementptr inbounds nuw %struct.nghttp2_nv, ptr %14, i32 0, i32 3
  %16 = load i64, ptr %15, align 8, !tbaa !105
  %17 = load ptr, ptr %5, align 8, !tbaa !8
  %18 = getelementptr inbounds nuw %struct.nghttp2_nv, ptr %17, i32 0, i32 3
  %19 = load i64, ptr %18, align 8, !tbaa !105
  %20 = icmp ne i64 %16, %19
  br i1 %20, label %21, label %22

21:                                               ; preds = %13, %2
  store i32 0, ptr %3, align 4
  br label %101

22:                                               ; preds = %13
  %23 = load ptr, ptr %4, align 8, !tbaa !8
  %24 = getelementptr inbounds nuw %struct.nghttp2_nv, ptr %23, i32 0, i32 0
  %25 = load ptr, ptr %24, align 8, !tbaa !106
  %26 = icmp eq ptr %25, null
  br i1 %26, label %32, label %27

27:                                               ; preds = %22
  %28 = load ptr, ptr %5, align 8, !tbaa !8
  %29 = getelementptr inbounds nuw %struct.nghttp2_nv, ptr %28, i32 0, i32 0
  %30 = load ptr, ptr %29, align 8, !tbaa !106
  %31 = icmp eq ptr %30, null
  br i1 %31, label %32, label %47

32:                                               ; preds = %27, %22
  %33 = load ptr, ptr %4, align 8, !tbaa !8
  %34 = getelementptr inbounds nuw %struct.nghttp2_nv, ptr %33, i32 0, i32 2
  %35 = load i64, ptr %34, align 8, !tbaa !103
  %36 = icmp eq i64 %35, 0
  br i1 %36, label %37, label %38

37:                                               ; preds = %32
  br label %39

38:                                               ; preds = %32
  call void @__assert_fail(ptr noundef @.str.10, ptr noundef @.str.1, i32 noundef 966, ptr noundef @__PRETTY_FUNCTION__.nghttp2_nv_equal) #8
  unreachable

39:                                               ; preds = %37
  %40 = load ptr, ptr %5, align 8, !tbaa !8
  %41 = getelementptr inbounds nuw %struct.nghttp2_nv, ptr %40, i32 0, i32 2
  %42 = load i64, ptr %41, align 8, !tbaa !103
  %43 = icmp eq i64 %42, 0
  br i1 %43, label %44, label %45

44:                                               ; preds = %39
  br label %46

45:                                               ; preds = %39
  call void @__assert_fail(ptr noundef @.str.11, ptr noundef @.str.1, i32 noundef 967, ptr noundef @__PRETTY_FUNCTION__.nghttp2_nv_equal) #8
  unreachable

46:                                               ; preds = %44
  br label %61

47:                                               ; preds = %27
  %48 = load ptr, ptr %4, align 8, !tbaa !8
  %49 = getelementptr inbounds nuw %struct.nghttp2_nv, ptr %48, i32 0, i32 0
  %50 = load ptr, ptr %49, align 8, !tbaa !106
  %51 = load ptr, ptr %5, align 8, !tbaa !8
  %52 = getelementptr inbounds nuw %struct.nghttp2_nv, ptr %51, i32 0, i32 0
  %53 = load ptr, ptr %52, align 8, !tbaa !106
  %54 = load ptr, ptr %4, align 8, !tbaa !8
  %55 = getelementptr inbounds nuw %struct.nghttp2_nv, ptr %54, i32 0, i32 2
  %56 = load i64, ptr %55, align 8, !tbaa !103
  %57 = call i32 @memcmp(ptr noundef %50, ptr noundef %53, i64 noundef %56) #9
  %58 = icmp ne i32 %57, 0
  br i1 %58, label %59, label %60

59:                                               ; preds = %47
  store i32 0, ptr %3, align 4
  br label %101

60:                                               ; preds = %47
  br label %61

61:                                               ; preds = %60, %46
  %62 = load ptr, ptr %4, align 8, !tbaa !8
  %63 = getelementptr inbounds nuw %struct.nghttp2_nv, ptr %62, i32 0, i32 1
  %64 = load ptr, ptr %63, align 8, !tbaa !107
  %65 = icmp eq ptr %64, null
  br i1 %65, label %71, label %66

66:                                               ; preds = %61
  %67 = load ptr, ptr %5, align 8, !tbaa !8
  %68 = getelementptr inbounds nuw %struct.nghttp2_nv, ptr %67, i32 0, i32 1
  %69 = load ptr, ptr %68, align 8, !tbaa !107
  %70 = icmp eq ptr %69, null
  br i1 %70, label %71, label %86

71:                                               ; preds = %66, %61
  %72 = load ptr, ptr %4, align 8, !tbaa !8
  %73 = getelementptr inbounds nuw %struct.nghttp2_nv, ptr %72, i32 0, i32 3
  %74 = load i64, ptr %73, align 8, !tbaa !105
  %75 = icmp eq i64 %74, 0
  br i1 %75, label %76, label %77

76:                                               ; preds = %71
  br label %78

77:                                               ; preds = %71
  call void @__assert_fail(ptr noundef @.str.12, ptr noundef @.str.1, i32 noundef 973, ptr noundef @__PRETTY_FUNCTION__.nghttp2_nv_equal) #8
  unreachable

78:                                               ; preds = %76
  %79 = load ptr, ptr %5, align 8, !tbaa !8
  %80 = getelementptr inbounds nuw %struct.nghttp2_nv, ptr %79, i32 0, i32 3
  %81 = load i64, ptr %80, align 8, !tbaa !105
  %82 = icmp eq i64 %81, 0
  br i1 %82, label %83, label %84

83:                                               ; preds = %78
  br label %85

84:                                               ; preds = %78
  call void @__assert_fail(ptr noundef @.str.13, ptr noundef @.str.1, i32 noundef 974, ptr noundef @__PRETTY_FUNCTION__.nghttp2_nv_equal) #8
  unreachable

85:                                               ; preds = %83
  br label %100

86:                                               ; preds = %66
  %87 = load ptr, ptr %4, align 8, !tbaa !8
  %88 = getelementptr inbounds nuw %struct.nghttp2_nv, ptr %87, i32 0, i32 1
  %89 = load ptr, ptr %88, align 8, !tbaa !107
  %90 = load ptr, ptr %5, align 8, !tbaa !8
  %91 = getelementptr inbounds nuw %struct.nghttp2_nv, ptr %90, i32 0, i32 1
  %92 = load ptr, ptr %91, align 8, !tbaa !107
  %93 = load ptr, ptr %4, align 8, !tbaa !8
  %94 = getelementptr inbounds nuw %struct.nghttp2_nv, ptr %93, i32 0, i32 3
  %95 = load i64, ptr %94, align 8, !tbaa !105
  %96 = call i32 @memcmp(ptr noundef %89, ptr noundef %92, i64 noundef %95) #9
  %97 = icmp ne i32 %96, 0
  br i1 %97, label %98, label %99

98:                                               ; preds = %86
  store i32 0, ptr %3, align 4
  br label %101

99:                                               ; preds = %86
  br label %100

100:                                              ; preds = %99, %85
  store i32 1, ptr %3, align 4
  br label %101

101:                                              ; preds = %100, %98, %59, %21
  %102 = load i32, ptr %3, align 4
  ret i32 %102
}