; Function Attrs: nounwind uwtable
define hidden range(i32 0, 2) i32 @nghttp2_nv_equal(ptr noundef readonly captures(none) %0, ptr noundef readonly captures(none) %1) local_unnamed_addr #0 {
  %3 = getelementptr inbounds nuw i8, ptr %0, i64 16
  %4 = load i64, ptr %3, align 8, !tbaa !94
  %5 = getelementptr inbounds nuw i8, ptr %1, i64 16
  %6 = load i64, ptr %5, align 8, !tbaa !94
  %.not = icmp eq i64 %4, %6
  br i1 %.not, label %7, label %35

7:                                                ; preds = %2
  %8 = getelementptr inbounds nuw i8, ptr %0, i64 24
  %9 = load i64, ptr %8, align 8, !tbaa !96
  %10 = getelementptr inbounds nuw i8, ptr %1, i64 24
  %11 = load i64, ptr %10, align 8, !tbaa !96
  %.not23 = icmp eq i64 %9, %11
  br i1 %.not23, label %12, label %35

12:                                               ; preds = %7
  %13 = load ptr, ptr %0, align 8, !tbaa !97
  %14 = icmp eq ptr %13, null
  br i1 %14, label %18, label %15

15:                                               ; preds = %12
  %16 = load ptr, ptr %1, align 8, !tbaa !97
  %17 = icmp eq ptr %16, null
  br i1 %17, label %18, label %21

18:                                               ; preds = %15, %12
  %19 = icmp eq i64 %4, 0
  br i1 %19, label %22, label %20

20:                                               ; preds = %18
  tail call void @__assert_fail(ptr noundef nonnull @.str.10, ptr noundef nonnull @.str.1, i32 noundef 966, ptr noundef nonnull @__PRETTY_FUNCTION__.nghttp2_nv_equal) #19
  unreachable

21:                                               ; preds = %15
  %bcmp = tail call i32 @bcmp(ptr nonnull %13, ptr nonnull %16, i64 %4)
  %.not24 = icmp eq i32 %bcmp, 0
  br i1 %.not24, label %22, label %35

22:                                               ; preds = %18, %21
  %23 = getelementptr inbounds nuw i8, ptr %0, i64 8
  %24 = load ptr, ptr %23, align 8, !tbaa !98
  %25 = icmp eq ptr %24, null
  br i1 %25, label %30, label %26

26:                                               ; preds = %22
  %27 = getelementptr inbounds nuw i8, ptr %1, i64 8
  %28 = load ptr, ptr %27, align 8, !tbaa !98
  %29 = icmp eq ptr %28, null
  br i1 %29, label %30, label %33

30:                                               ; preds = %26, %22
  %31 = icmp eq i64 %9, 0
  br i1 %31, label %34, label %32

32:                                               ; preds = %30
  tail call void @__assert_fail(ptr noundef nonnull @.str.12, ptr noundef nonnull @.str.1, i32 noundef 973, ptr noundef nonnull @__PRETTY_FUNCTION__.nghttp2_nv_equal) #19
  unreachable

33:                                               ; preds = %26
  %bcmp25 = tail call i32 @bcmp(ptr nonnull %24, ptr nonnull %28, i64 %9)
  %.not26 = icmp eq i32 %bcmp25, 0
  br i1 %.not26, label %34, label %35

34:                                               ; preds = %30, %33
  br label %35

35:                                               ; preds = %33, %21, %2, %7, %34
  %.0 = phi i32 [ 1, %34 ], [ 0, %7 ], [ 0, %2 ], [ 0, %21 ], [ 0, %33 ]
  ret i32 %.0
}